(dp0
S'1'
p1
(dp2
S'errors'
p3
I2
sg1
I0
sS'0'
p4
I0
sS'3'
p5
I0
sS'2'
p6
I2
sS'5'
p7
I0
sS'4'
p8
I0
sS'7'
p9
I0
sS'6'
p10
I0
sS'9'
p11
I0
sS'8'
p12
I0
ssg4
(dp13
g3
I6
sg1
I1
sg4
I0
sg5
I0
sg6
I1
sg7
I1
sg8
I0
sg9
I1
sg10
I2
sg11
I0
sg12
I0
ssg5
(dp14
g3
I34
sg1
I2
sg4
I0
sg5
I0
sg6
I4
sg7
I13
sg8
I1
sg9
I7
sg10
I1
sg11
I3
sg12
I3
ssg6
(dp15
g3
I36
sg1
I9
sg4
I10
sg5
I2
sg6
I0
sg7
I0
sg8
I0
sg9
I13
sg10
I0
sg11
I0
sg12
I2
ssg7
(dp16
g3
I33
sg1
I1
sg4
I6
sg5
I11
sg6
I0
sg7
I0
sg8
I2
sg9
I1
sg10
I5
sg11
I4
sg12
I3
ssg8
(dp17
g3
I32
sg1
I6
sg4
I1
sg5
I0
sg6
I0
sg7
I0
sg8
I0
sg9
I2
sg10
I4
sg11
I19
sg12
I0
ssg9
(dp18
g3
I37
sg1
I21
sg4
I0
sg5
I0
sg6
I5
sg7
I0
sg8
I1
sg9
I0
sg10
I0
sg11
I10
sg12
I0
ssg10
(dp19
g3
I14
sg1
I3
sg4
I5
sg5
I0
sg6
I0
sg7
I3
sg8
I3
sg9
I0
sg10
I0
sg11
I0
sg12
I0
ssg11
(dp20
g3
I41
sg1
I5
sg4
I4
sg5
I8
sg6
I2
sg7
I2
sg8
I9
sg9
I8
sg10
I1
sg11
I0
sg12
I2
ssg12
(dp21
g3
I60
sg1
I2
sg4
I8
sg5
I16
sg6
I4
sg7
I11
sg8
I8
sg9
I4
sg10
I3
sg11
I4
sg12
I0
ss.