(dp0
S'1'
p1
(dp2
S'errors'
p3
I0
sg1
I0
sS'0'
p4
I0
sS'3'
p5
I0
sS'2'
p6
I0
sS'5'
p7
I0
sS'4'
p8
I0
sS'7'
p9
I0
sS'6'
p10
I0
sS'9'
p11
I0
sS'8'
p12
I0
ssg4
(dp13
g3
I0
sg1
I0
sg4
I0
sg5
I0
sg6
I0
sg7
I0
sg8
I0
sg9
I0
sg10
I0
sg11
I0
sg12
I0
ssg5
(dp14
g3
I11
sg1
I2
sg4
I0
sg5
I0
sg6
I0
sg7
I3
sg8
I0
sg9
I4
sg10
I0
sg11
I1
sg12
I1
ssg6
(dp15
g3
I10
sg1
I5
sg4
I1
sg5
I0
sg6
I0
sg7
I0
sg8
I0
sg9
I4
sg10
I0
sg11
I0
sg12
I0
ssg7
(dp16
g3
I5
sg1
I0
sg4
I1
sg5
I0
sg6
I0
sg7
I0
sg8
I0
sg9
I0
sg10
I3
sg11
I0
sg12
I1
ssg8
(dp17
g3
I9
sg1
I1
sg4
I0
sg5
I0
sg6
I0
sg7
I0
sg8
I0
sg9
I1
sg10
I3
sg11
I4
sg12
I0
ssg9
(dp18
g3
I6
sg1
I3
sg4
I0
sg5
I0
sg6
I2
sg7
I0
sg8
I0
sg9
I0
sg10
I0
sg11
I1
sg12
I0
ssg10
(dp19
g3
I2
sg1
I0
sg4
I1
sg5
I0
sg6
I0
sg7
I0
sg8
I1
sg9
I0
sg10
I0
sg11
I0
sg12
I0
ssg11
(dp20
g3
I8
sg1
I2
sg4
I0
sg5
I3
sg6
I0
sg7
I1
sg8
I0
sg9
I1
sg10
I1
sg11
I0
sg12
I0
ssg12
(dp21
g3
I12
sg1
I1
sg4
I1
sg5
I4
sg6
I0
sg7
I2
sg8
I2
sg9
I1
sg10
I0
sg11
I1
sg12
I0
ss.